target datalayout = "e-m:e-p270:32:32-p271:32:32-p272:64:64-i64:64-i128:128-f80:128-n8:16:32:64-S128"
target triple = "x86_64-pc-linux-gnu"

%struct.stbir__sampler = type { ptr, ptr, ptr, ptr, %struct.stbir__scale_info, float, i32, ptr, ptr, i32, i32, i32, i32, i32, i32, i32, %struct.stbir__filter_extent_info, i32, i32, i32, i32, i32 }
%struct.stbir__scale_info = type { i32, i32, float, float, float, i32, i32, i32 }
%struct.stbir__filter_extent_info = type { i32, i32, i32 }
%struct.stbir__contributors = type { i32, i32 }
%struct.stbir__extents = type { %struct.stbir__contributors, [2 x i32], [2 x %struct.stbir__span] }
%struct.stbir__span = type { i32, i32, i32 }
%struct.stbir__info = type { %struct.stbir__sampler, %struct.stbir__sampler, ptr, ptr, i32, i32, i32, i32, i32, i32, ptr, ptr, ptr, %struct.stbir__extents, ptr, ptr, ptr, ptr, ptr, ptr, ptr, i32, i32, i32, i32, i32, i32, i32, i32, i32, i32, i64 }
%struct.stbir__per_split_info = type { ptr, i32, i32, i32, i32, i32, i32, i32, ptr, ptr, [64 x i8] }
%struct.STBIR_RESIZE = type { ptr, ptr, i32, i32, double, double, double, double, ptr, ptr, i32, i32, i32, i32, i32, i32, ptr, i32, i32, i32, i32, i32, i32, i32, i32, i32, i32, i32, i32, i32, i32, ptr, ptr, ptr, ptr, ptr }

; Function Attrs: nounwind uwtable
define i32 @stbir__perform_resize(ptr noundef %0, i32 noundef %1, i32 noundef %2) #3 {
  %4 = alloca ptr, align 8
  %5 = alloca i32, align 4
  %6 = alloca i32, align 4
  %7 = alloca ptr, align 8
  store ptr %0, ptr %4, align 8, !tbaa !519
  store i32 %1, ptr %5, align 4, !tbaa !26
  store i32 %2, ptr %6, align 4, !tbaa !26
  call void @llvm.lifetime.start.p0(i64 8, ptr %7) #12
  %8 = load ptr, ptr %4, align 8, !tbaa !519
  %9 = getelementptr inbounds nuw %struct.stbir__info, ptr %8, i32 0, i32 15
  %10 = load ptr, ptr %9, align 8, !tbaa !1052
  %11 = load i32, ptr %5, align 4, !tbaa !26
  %12 = sext i32 %11 to i64
  %13 = getelementptr inbounds %struct.stbir__per_split_info, ptr %10, i64 %12
  store ptr %13, ptr %7, align 8, !tbaa !3
  %14 = load ptr, ptr %4, align 8, !tbaa !519
  %15 = getelementptr inbounds nuw %struct.stbir__info, ptr %14, i32 0, i32 1
  %16 = getelementptr inbounds nuw %struct.stbir__sampler, ptr %15, i32 0, i32 17
  %17 = load i32, ptr %16, align 8, !tbaa !1063
  %18 = icmp ne i32 %17, 0
  br i1 %18, label %19, label %23

19:                                               ; preds = %3
  %20 = load ptr, ptr %4, align 8, !tbaa !519
  %21 = load ptr, ptr %7, align 8, !tbaa !3
  %22 = load i32, ptr %6, align 4, !tbaa !26
  call void @stbir__vertical_gather_loop(ptr noundef %20, ptr noundef %21, i32 noundef %22)
  br label %27

23:                                               ; preds = %3
  %24 = load ptr, ptr %4, align 8, !tbaa !519
  %25 = load ptr, ptr %7, align 8, !tbaa !3
  %26 = load i32, ptr %6, align 4, !tbaa !26
  call void @stbir__vertical_scatter_loop(ptr noundef %24, ptr noundef %25, i32 noundef %26)
  br label %27

27:                                               ; preds = %23, %19
  call void @llvm.lifetime.end.p0(i64 8, ptr %7) #12
  ret i32 1
}

; Function Attrs: nounwind uwtable
define i32 @stbir_resize_extended_split(ptr noundef %0, i32 noundef %1, i32 noundef %2) #3 {
  %4 = alloca i32, align 4
  %5 = alloca ptr, align 8
  %6 = alloca i32, align 4
  %7 = alloca i32, align 4
  store ptr %0, ptr %5, align 8, !tbaa !1068
  store i32 %1, ptr %6, align 4, !tbaa !26
  store i32 %2, ptr %7, align 4, !tbaa !26
  %8 = load i32, ptr %6, align 4, !tbaa !26
  %9 = icmp eq i32 %8, -1
  br i1 %9, label %19, label %10

10:                                               ; preds = %3
  %11 = load i32, ptr %6, align 4, !tbaa !26
  %12 = icmp eq i32 %11, 0
  br i1 %12, label %13, label %22

13:                                               ; preds = %10
  %14 = load i32, ptr %7, align 4, !tbaa !26
  %15 = load ptr, ptr %5, align 8, !tbaa !1068
  %16 = getelementptr inbounds nuw %struct.STBIR_RESIZE, ptr %15, i32 0, i32 19
  %17 = load i32, ptr %16, align 8, !tbaa !1108
  %18 = icmp eq i32 %14, %17
  br i1 %18, label %19, label %22

19:                                               ; preds = %13, %3
  %20 = load ptr, ptr %5, align 8, !tbaa !1068
  %21 = call i32 @stbir_resize_extended(ptr noundef %20)
  store i32 %21, ptr %4, align 4
  br label %61

22:                                               ; preds = %13, %10
  %23 = load ptr, ptr %5, align 8, !tbaa !1068
  %24 = getelementptr inbounds nuw %struct.STBIR_RESIZE, ptr %23, i32 0, i32 35
  %25 = load ptr, ptr %24, align 8, !tbaa !1082
  %26 = icmp eq ptr %25, null
  br i1 %26, label %32, label %27

27:                                               ; preds = %22
  %28 = load ptr, ptr %5, align 8, !tbaa !1068
  %29 = getelementptr inbounds nuw %struct.STBIR_RESIZE, ptr %28, i32 0, i32 21
  %30 = load i32, ptr %29, align 8, !tbaa !1104
  %31 = icmp ne i32 %30, 0
  br i1 %31, label %32, label %33

32:                                               ; preds = %27, %22
  store i32 0, ptr %4, align 4
  br label %61

33:                                               ; preds = %27
  %34 = load i32, ptr %6, align 4, !tbaa !26
  %35 = load ptr, ptr %5, align 8, !tbaa !1068
  %36 = getelementptr inbounds nuw %struct.STBIR_RESIZE, ptr %35, i32 0, i32 19
  %37 = load i32, ptr %36, align 8, !tbaa !1108
  %38 = icmp sge i32 %34, %37
  br i1 %38, label %53, label %39

39:                                               ; preds = %33
  %40 = load i32, ptr %6, align 4, !tbaa !26
  %41 = icmp slt i32 %40, 0
  br i1 %41, label %53, label %42

42:                                               ; preds = %39
  %43 = load i32, ptr %6, align 4, !tbaa !26
  %44 = load i32, ptr %7, align 4, !tbaa !26
  %45 = add nsw i32 %43, %44
  %46 = load ptr, ptr %5, align 8, !tbaa !1068
  %47 = getelementptr inbounds nuw %struct.STBIR_RESIZE, ptr %46, i32 0, i32 19
  %48 = load i32, ptr %47, align 8, !tbaa !1108
  %49 = icmp sgt i32 %45, %48
  br i1 %49, label %53, label %50

50:                                               ; preds = %42
  %51 = load i32, ptr %7, align 4, !tbaa !26
  %52 = icmp sle i32 %51, 0
  br i1 %52, label %53, label %54

53:                                               ; preds = %50, %42, %39, %33
  store i32 0, ptr %4, align 4
  br label %61

54:                                               ; preds = %50
  %55 = load ptr, ptr %5, align 8, !tbaa !1068
  %56 = getelementptr inbounds nuw %struct.STBIR_RESIZE, ptr %55, i32 0, i32 35
  %57 = load ptr, ptr %56, align 8, !tbaa !1082
  %58 = load i32, ptr %6, align 4, !tbaa !26
  %59 = load i32, ptr %7, align 4, !tbaa !26
  %60 = call i32 @stbir__perform_resize(ptr noundef %57, i32 noundef %58, i32 noundef %59)
  store i32 %60, ptr %4, align 4
  br label %61

61:                                               ; preds = %54, %53, %32, %19
  %62 = load i32, ptr %4, align 4
  ret i32 %62
}