; Function Attrs: nounwind uwtable
define range(i32 0, 2) i32 @stbir_resize_extended_split(ptr noundef captures(none) %0, i32 noundef %1, i32 noundef %2) local_unnamed_addr #4 {
  switch i32 %1, label %10 [
    i32 -1, label %8
    i32 0, label %4
  ]

4:                                                ; preds = %3
  %5 = getelementptr inbounds nuw i8, ptr %0, i64 112
  %6 = load i32, ptr %5, align 8, !tbaa !1016
  %7 = icmp eq i32 %2, %6
  br i1 %7, label %8, label %10

8:                                                ; preds = %3, %4
  %9 = tail call i32 @stbir_resize_extended(ptr noundef %0)
  br label %stbir__perform_resize.exit

10:                                               ; preds = %3, %4
  %11 = getelementptr inbounds nuw i8, ptr %0, i64 192
  %12 = load ptr, ptr %11, align 8, !tbaa !1005
  %13 = icmp eq ptr %12, null
  br i1 %13, label %stbir__perform_resize.exit, label %14

14:                                               ; preds = %10
  %15 = getelementptr inbounds nuw i8, ptr %0, i64 120
  %16 = load i32, ptr %15, align 8, !tbaa !1001
  %.not = icmp eq i32 %16, 0
  br i1 %.not, label %17, label %stbir__perform_resize.exit

17:                                               ; preds = %14
  %18 = getelementptr inbounds nuw i8, ptr %0, i64 112
  %19 = load i32, ptr %18, align 8, !tbaa !1016
  %20 = icmp sge i32 %1, %19
  %21 = icmp slt i32 %1, 0
  %or.cond = or i1 %21, %20
  br i1 %or.cond, label %stbir__perform_resize.exit, label %22

22:                                               ; preds = %17
  %23 = add nsw i32 %2, %1
  %24 = icmp sgt i32 %23, %19
  %25 = icmp slt i32 %2, 1
  %or.cond3 = or i1 %25, %24
  br i1 %or.cond3, label %stbir__perform_resize.exit, label %26

26:                                               ; preds = %22
  %27 = getelementptr inbounds nuw i8, ptr %12, i64 416
  %28 = load ptr, ptr %27, align 8, !tbaa !960
  %29 = zext nneg i32 %1 to i64
  %30 = getelementptr inbounds nuw %struct.stbir__per_split_info, ptr %28, i64 %29
  %31 = getelementptr inbounds nuw i8, ptr %12, i64 280
  %32 = load i32, ptr %31, align 8, !tbaa !971
  %.not.i = icmp eq i32 %32, 0
  br i1 %.not.i, label %34, label %33

33:                                               ; preds = %26
  tail call void @stbir__vertical_gather_loop(ptr noundef nonnull %12, ptr noundef %30, i32 noundef %2)
  br label %stbir__perform_resize.exit

34:                                               ; preds = %26
  tail call void @stbir__vertical_scatter_loop(ptr noundef nonnull %12, ptr noundef %30, i32 noundef %2)
  br label %stbir__perform_resize.exit

stbir__perform_resize.exit:                       ; preds = %34, %33, %17, %22, %10, %14, %8
  %.0 = phi i32 [ %9, %8 ], [ 0, %14 ], [ 0, %10 ], [ 0, %22 ], [ 0, %17 ], [ 1, %33 ], [ 1, %34 ]
  ret i32 %.0
}